target datalayout = "e-m:e-p270:32:32-p271:32:32-p272:64:64-i64:64-i128:128-f80:128-n8:16:32:64-S128"
target triple = "x86_64-pc-linux-gnu"

%"class.std::__cxx11::basic_string" = type { %"struct.std::__cxx11::basic_string<char>::_Alloc_hider", i64, %union.anon }
%"struct.std::__cxx11::basic_string<char>::_Alloc_hider" = type { ptr }
%union.anon = type { i64, [8 x i8] }
%"class.std::allocator" = type { i8 }
%"class.mu::ParserToken" = type { i32, i32, ptr, i32, %"class.std::__cxx11::basic_string", %"class.std::__cxx11::basic_string", double, %"class.std::unique_ptr.51" }
%"class.std::unique_ptr.51" = type { %"struct.std::__uniq_ptr_data.52" }
%"struct.std::__uniq_ptr_data.52" = type { %"class.std::__uniq_ptr_impl.53" }
%"class.std::__uniq_ptr_impl.53" = type { %"class.std::tuple.54" }
%"class.std::tuple.54" = type { %"struct.std::_Tuple_impl.55" }
%"struct.std::_Tuple_impl.55" = type { %"struct.std::_Head_base.58" }
%"struct.std::_Head_base.58" = type { ptr }

@_ZTIN2mu11ParserErrorE = linkonce_odr constant { ptr, ptr } { ptr getelementptr inbounds (ptr, ptr @_ZTVN10__cxxabiv117__class_type_infoE, i64 2), ptr @_ZTSN2mu11ParserErrorE }, comdat, align 8
@.str.38 = private unnamed_addr constant [1 x i8] zeroinitializer, align 1

; Function Attrs: mustprogress nounwind uwtable
define linkonce_odr noundef nonnull align 8 dereferenceable(8) ptr @_ZNSt10_Head_baseILm0EPN2mu14ParserCallbackELb0EE7_M_headERKS3_(ptr noundef nonnull align 8 dereferenceable(8) %0) #0 comdat align 2 {
  %2 = alloca ptr, align 8
  store ptr %0, ptr %2, align 8
  %3 = load ptr, ptr %2, align 8
  %4 = getelementptr inbounds %"struct.std::_Head_base.58", ptr %3, i32 0, i32 0
  ret ptr %4
}

; Function Attrs: mustprogress nounwind uwtable
define linkonce_odr noundef nonnull align 8 dereferenceable(8) ptr @_ZNSt11_Tuple_implILm0EJPN2mu14ParserCallbackESt14default_deleteIS1_EEE7_M_headERKS5_(ptr noundef nonnull align 8 dereferenceable(8) %0) #0 comdat align 2 {
  %2 = alloca ptr, align 8
  store ptr %0, ptr %2, align 8
  %3 = load ptr, ptr %2, align 8
  %4 = call noundef nonnull align 8 dereferenceable(8) ptr @_ZNSt10_Head_baseILm0EPN2mu14ParserCallbackELb0EE7_M_headERKS3_(ptr noundef nonnull align 8 dereferenceable(8) %3) #4
  ret ptr %4
}

; Function Attrs: mustprogress nounwind uwtable
define linkonce_odr noundef nonnull align 8 dereferenceable(8) ptr @_ZSt12__get_helperILm0EPN2mu14ParserCallbackEJSt14default_deleteIS1_EEERKT0_RKSt11_Tuple_implIXT_EJS5_DpT1_EE(ptr noundef nonnull align 8 dereferenceable(8) %0) #0 comdat {
  %2 = alloca ptr, align 8
  store ptr %0, ptr %2, align 8
  %3 = load ptr, ptr %2, align 8
  %4 = call noundef nonnull align 8 dereferenceable(8) ptr @_ZNSt11_Tuple_implILm0EJPN2mu14ParserCallbackESt14default_deleteIS1_EEE7_M_headERKS5_(ptr noundef nonnull align 8 dereferenceable(8) %3) #4
  ret ptr %4
}

; Function Attrs: mustprogress nounwind uwtable
define linkonce_odr noundef nonnull align 8 dereferenceable(8) ptr @_ZSt3getILm0EJPN2mu14ParserCallbackESt14default_deleteIS1_EEERKNSt13tuple_elementIXT_ESt5tupleIJDpT0_EEE4typeERKS9_(ptr noundef nonnull align 8 dereferenceable(8) %0) #0 comdat {
  %2 = alloca ptr, align 8
  store ptr %0, ptr %2, align 8
  %3 = load ptr, ptr %2, align 8
  %4 = call noundef nonnull align 8 dereferenceable(8) ptr @_ZSt12__get_helperILm0EPN2mu14ParserCallbackEJSt14default_deleteIS1_EEERKT0_RKSt11_Tuple_implIXT_EJS5_DpT1_EE(ptr noundef nonnull align 8 dereferenceable(8) %3) #4
  ret ptr %4
}

; Function Attrs: mustprogress nounwind uwtable
define linkonce_odr noundef ptr @_ZNKSt15__uniq_ptr_implIN2mu14ParserCallbackESt14default_deleteIS1_EE6_M_ptrEv(ptr noundef nonnull align 8 dereferenceable(8) %0) #0 comdat align 2 {
  %2 = alloca ptr, align 8
  store ptr %0, ptr %2, align 8
  %3 = load ptr, ptr %2, align 8
  %4 = getelementptr inbounds %"class.std::__uniq_ptr_impl.53", ptr %3, i32 0, i32 0
  %5 = call noundef nonnull align 8 dereferenceable(8) ptr @_ZSt3getILm0EJPN2mu14ParserCallbackESt14default_deleteIS1_EEERKNSt13tuple_elementIXT_ESt5tupleIJDpT0_EEE4typeERKS9_(ptr noundef nonnull align 8 dereferenceable(8) %4) #4
  %6 = load ptr, ptr %5, align 8
  ret ptr %6
}

; Function Attrs: mustprogress nounwind uwtable
define linkonce_odr noundef ptr @_ZNKSt10unique_ptrIN2mu14ParserCallbackESt14default_deleteIS1_EEptEv(ptr noundef nonnull align 8 dereferenceable(8) %0) #0 comdat align 2 {
  %2 = alloca ptr, align 8
  store ptr %0, ptr %2, align 8
  %3 = load ptr, ptr %2, align 8
  %4 = call noundef ptr @_ZNKSt10unique_ptrIN2mu14ParserCallbackESt14default_deleteIS1_EE3getEv(ptr noundef nonnull align 8 dereferenceable(8) %3) #4
  ret ptr %4
}

; Function Attrs: mustprogress nounwind uwtable
define linkonce_odr noundef ptr @_ZNKSt10unique_ptrIN2mu14ParserCallbackESt14default_deleteIS1_EE3getEv(ptr noundef nonnull align 8 dereferenceable(8) %0) #0 comdat align 2 {
  %2 = alloca ptr, align 8
  store ptr %0, ptr %2, align 8
  %3 = load ptr, ptr %2, align 8
  %4 = getelementptr inbounds %"class.std::unique_ptr.51", ptr %3, i32 0, i32 0
  %5 = call noundef ptr @_ZNKSt15__uniq_ptr_implIN2mu14ParserCallbackESt14default_deleteIS1_EE6_M_ptrEv(ptr noundef nonnull align 8 dereferenceable(8) %4) #4
  ret ptr %5
}

; Function Attrs: mustprogress uwtable
define linkonce_odr noundef i32 @_ZNK2mu11ParserTokenIdNSt7__cxx1112basic_stringIcSt11char_traitsIcESaIcEEEE7GetCodeEv(ptr noundef nonnull align 8 dereferenceable(104) %0) #6 comdat align 2 {
  %2 = alloca i32, align 4
  %3 = alloca ptr, align 8
  store ptr %0, ptr %3, align 8
  %4 = load ptr, ptr %3, align 8
  %5 = getelementptr inbounds %"class.mu::ParserToken", ptr %4, i32 0, i32 7
  %6 = call noundef ptr @_ZNKSt10unique_ptrIN2mu14ParserCallbackESt14default_deleteIS1_EE3getEv(ptr noundef nonnull align 8 dereferenceable(8) %5) #4
  %7 = icmp ne ptr %6, null
  br i1 %7, label %8, label %12

8:                                                ; preds = %1
  %9 = getelementptr inbounds %"class.mu::ParserToken", ptr %4, i32 0, i32 7
  %10 = call noundef ptr @_ZNKSt10unique_ptrIN2mu14ParserCallbackESt14default_deleteIS1_EEptEv(ptr noundef nonnull align 8 dereferenceable(8) %9) #4
  %11 = call noundef i32 @_ZNK2mu14ParserCallback7GetCodeEv(ptr noundef nonnull align 8 dereferenceable(32) %10)
  store i32 %11, ptr %2, align 4
  br label %15

12:                                               ; preds = %1
  %13 = getelementptr inbounds %"class.mu::ParserToken", ptr %4, i32 0, i32 0
  %14 = load i32, ptr %13, align 8
  store i32 %14, ptr %2, align 4
  br label %15

15:                                               ; preds = %12, %8
  %16 = load i32, ptr %2, align 4
  ret i32 %16
}

; Function Attrs: mustprogress uwtable
define noundef i32 @_ZNK2mu10ParserBase17GetOprtPrecedenceERKNS_11ParserTokenIdNSt7__cxx1112basic_stringIcSt11char_traitsIcESaIcEEEEE(ptr noundef nonnull align 8 dereferenceable(596) %0, ptr noundef nonnull align 8 dereferenceable(104) %1) #6 align 2 personality ptr @__gxx_personality_v0 {
  %3 = alloca i32, align 4
  %4 = alloca ptr, align 8
  %5 = alloca ptr, align 8
  %6 = alloca %"class.std::__cxx11::basic_string", align 8
  %7 = alloca %"class.std::allocator", align 1
  %8 = alloca ptr, align 8
  %9 = alloca i32, align 4
  %10 = alloca i1, align 1
  store ptr %0, ptr %4, align 8
  store ptr %1, ptr %5, align 8
  %11 = load ptr, ptr %5, align 8
  %12 = call noundef i32 @_ZNK2mu11ParserTokenIdNSt7__cxx1112basic_stringIcSt11char_traitsIcESaIcEEEE7GetCodeEv(ptr noundef nonnull align 8 dereferenceable(104) %11)
  switch i32 %12, label %26 [
    i32 33, label %13
    i32 19, label %14
    i32 13, label %15
    i32 17, label %16
    i32 16, label %16
    i32 11, label %17
    i32 12, label %18
    i32 4, label %19
    i32 5, label %19
    i32 0, label %19
    i32 1, label %19
    i32 2, label %19
    i32 3, label %19
    i32 6, label %20
    i32 7, label %20
    i32 8, label %21
    i32 9, label %21
    i32 10, label %22
    i32 32, label %23
    i32 30, label %23
  ]

13:                                               ; preds = %2
  store i32 -5, ptr %3, align 4
  br label %42

14:                                               ; preds = %2
  store i32 -4, ptr %3, align 4
  br label %42

15:                                               ; preds = %2
  store i32 -1, ptr %3, align 4
  br label %42

16:                                               ; preds = %2, %2
  store i32 0, ptr %3, align 4
  br label %42

17:                                               ; preds = %2
  store i32 2, ptr %3, align 4
  br label %42

18:                                               ; preds = %2
  store i32 1, ptr %3, align 4
  br label %42

19:                                               ; preds = %2, %2, %2, %2, %2, %2
  store i32 4, ptr %3, align 4
  br label %42

20:                                               ; preds = %2, %2
  store i32 5, ptr %3, align 4
  br label %42

21:                                               ; preds = %2, %2
  store i32 6, ptr %3, align 4
  br label %42

22:                                               ; preds = %2
  store i32 7, ptr %3, align 4
  br label %42

23:                                               ; preds = %2, %2
  %24 = load ptr, ptr %5, align 8
  %25 = call noundef i32 @_ZNK2mu11ParserTokenIdNSt7__cxx1112basic_stringIcSt11char_traitsIcESaIcEEEE6GetPriEv(ptr noundef nonnull align 8 dereferenceable(104) %24)
  store i32 %25, ptr %3, align 4
  br label %42

26:                                               ; preds = %2
  store i1 true, ptr %10, align 1
  %27 = call ptr @__cxa_allocate_exception(i64 112) #4
  call void @_ZNSaIcEC1Ev(ptr noundef nonnull align 1 dereferenceable(1) %7) #4
  invoke void @_ZNSt7__cxx1112basic_stringIcSt11char_traitsIcESaIcEEC1EPKcRKS3_(ptr noundef nonnull align 8 dereferenceable(32) %6, ptr noundef @.str.38, ptr noundef nonnull align 1 dereferenceable(1) %7)
          to label %28 unwind label %30

28:                                               ; preds = %26
  invoke void @_ZN2mu11ParserErrorC1ENS_11EErrorCodesEiRKNSt7__cxx1112basic_stringIcSt11char_traitsIcESaIcEEE(ptr noundef nonnull align 8 dereferenceable(112) %27, i32 noundef 39, i32 noundef 5, ptr noundef nonnull align 8 dereferenceable(32) %6)
          to label %29 unwind label %34

29:                                               ; preds = %28
  store i1 false, ptr %10, align 1
  invoke void @__cxa_throw(ptr %27, ptr @_ZTIN2mu11ParserErrorE, ptr @_ZN2mu11ParserErrorD1Ev) #21
          to label %49 unwind label %34

30:                                               ; preds = %26
  %31 = landingpad { ptr, i32 }
          cleanup
  %32 = extractvalue { ptr, i32 } %31, 0
  store ptr %32, ptr %8, align 8
  %33 = extractvalue { ptr, i32 } %31, 1
  store i32 %33, ptr %9, align 4
  br label %38

34:                                               ; preds = %29, %28
  %35 = landingpad { ptr, i32 }
          cleanup
  %36 = extractvalue { ptr, i32 } %35, 0
  store ptr %36, ptr %8, align 8
  %37 = extractvalue { ptr, i32 } %35, 1
  store i32 %37, ptr %9, align 4
  call void @_ZNSt7__cxx1112basic_stringIcSt11char_traitsIcESaIcEED1Ev(ptr noundef nonnull align 8 dereferenceable(32) %6) #4
  br label %38

38:                                               ; preds = %34, %30
  call void @_ZNSaIcED1Ev(ptr noundef nonnull align 1 dereferenceable(1) %7) #4
  %39 = load i1, ptr %10, align 1
  br i1 %39, label %40, label %41

40:                                               ; preds = %38
  call void @__cxa_free_exception(ptr %27) #4
  br label %41

41:                                               ; preds = %40, %38
  br label %44

42:                                               ; preds = %23, %22, %21, %20, %19, %18, %17, %16, %15, %14, %13
  %43 = load i32, ptr %3, align 4
  ret i32 %43

44:                                               ; preds = %41
  %45 = load ptr, ptr %8, align 8
  %46 = load i32, ptr %9, align 4
  %47 = insertvalue { ptr, i32 } poison, ptr %45, 0
  %48 = insertvalue { ptr, i32 } %47, i32 %46, 1
  resume { ptr, i32 } %48

49:                                               ; preds = %29
  unreachable
}