; Function Attrs: mustprogress uwtable
define noundef i32 @_ZNK2mu10ParserBase17GetOprtPrecedenceERKNS_11ParserTokenIdNSt7__cxx1112basic_stringIcSt11char_traitsIcESaIcEEEEE(ptr nocapture nonnull readnone align 8 %0, ptr noundef nonnull align 8 dereferenceable(104) %1) local_unnamed_addr #7 align 2 personality ptr @__gxx_personality_v0 {
  %3 = alloca %"class.std::__cxx11::basic_string", align 8
  %4 = alloca %"class.std::allocator", align 1
  %5 = getelementptr inbounds i8, ptr %1, i64 96
  %6 = load ptr, ptr %5, align 8
  %.not.i = icmp eq ptr %6, null
  br i1 %.not.i, label %9, label %7

7:                                                ; preds = %2
  %8 = tail call noundef i32 @_ZNK2mu14ParserCallback7GetCodeEv(ptr noundef nonnull align 8 dereferenceable(32) %6)
  br label %_ZNK2mu11ParserTokenIdNSt7__cxx1112basic_stringIcSt11char_traitsIcESaIcEEEE7GetCodeEv.exit

9:                                                ; preds = %2
  %10 = load i32, ptr %1, align 8
  br label %_ZNK2mu11ParserTokenIdNSt7__cxx1112basic_stringIcSt11char_traitsIcESaIcEEEE7GetCodeEv.exit

_ZNK2mu11ParserTokenIdNSt7__cxx1112basic_stringIcSt11char_traitsIcESaIcEEEE7GetCodeEv.exit: ; preds = %7, %9
  %.0.i = phi i32 [ %8, %7 ], [ %10, %9 ]
  switch i32 %.0.i, label %22 [
    i32 33, label %30
    i32 19, label %11
    i32 13, label %12
    i32 17, label %13
    i32 16, label %13
    i32 11, label %14
    i32 12, label %15
    i32 4, label %16
    i32 5, label %16
    i32 0, label %16
    i32 1, label %16
    i32 2, label %16
    i32 3, label %16
    i32 6, label %17
    i32 7, label %17
    i32 8, label %18
    i32 9, label %18
    i32 10, label %19
    i32 32, label %20
    i32 30, label %20
  ]

11:                                               ; preds = %_ZNK2mu11ParserTokenIdNSt7__cxx1112basic_stringIcSt11char_traitsIcESaIcEEEE7GetCodeEv.exit
  br label %30

12:                                               ; preds = %_ZNK2mu11ParserTokenIdNSt7__cxx1112basic_stringIcSt11char_traitsIcESaIcEEEE7GetCodeEv.exit
  br label %30

13:                                               ; preds = %_ZNK2mu11ParserTokenIdNSt7__cxx1112basic_stringIcSt11char_traitsIcESaIcEEEE7GetCodeEv.exit, %_ZNK2mu11ParserTokenIdNSt7__cxx1112basic_stringIcSt11char_traitsIcESaIcEEEE7GetCodeEv.exit
  br label %30

14:                                               ; preds = %_ZNK2mu11ParserTokenIdNSt7__cxx1112basic_stringIcSt11char_traitsIcESaIcEEEE7GetCodeEv.exit
  br label %30

15:                                               ; preds = %_ZNK2mu11ParserTokenIdNSt7__cxx1112basic_stringIcSt11char_traitsIcESaIcEEEE7GetCodeEv.exit
  br label %30

16:                                               ; preds = %_ZNK2mu11ParserTokenIdNSt7__cxx1112basic_stringIcSt11char_traitsIcESaIcEEEE7GetCodeEv.exit, %_ZNK2mu11ParserTokenIdNSt7__cxx1112basic_stringIcSt11char_traitsIcESaIcEEEE7GetCodeEv.exit, %_ZNK2mu11ParserTokenIdNSt7__cxx1112basic_stringIcSt11char_traitsIcESaIcEEEE7GetCodeEv.exit, %_ZNK2mu11ParserTokenIdNSt7__cxx1112basic_stringIcSt11char_traitsIcESaIcEEEE7GetCodeEv.exit, %_ZNK2mu11ParserTokenIdNSt7__cxx1112basic_stringIcSt11char_traitsIcESaIcEEEE7GetCodeEv.exit, %_ZNK2mu11ParserTokenIdNSt7__cxx1112basic_stringIcSt11char_traitsIcESaIcEEEE7GetCodeEv.exit
  br label %30

17:                                               ; preds = %_ZNK2mu11ParserTokenIdNSt7__cxx1112basic_stringIcSt11char_traitsIcESaIcEEEE7GetCodeEv.exit, %_ZNK2mu11ParserTokenIdNSt7__cxx1112basic_stringIcSt11char_traitsIcESaIcEEEE7GetCodeEv.exit
  br label %30

18:                                               ; preds = %_ZNK2mu11ParserTokenIdNSt7__cxx1112basic_stringIcSt11char_traitsIcESaIcEEEE7GetCodeEv.exit, %_ZNK2mu11ParserTokenIdNSt7__cxx1112basic_stringIcSt11char_traitsIcESaIcEEEE7GetCodeEv.exit
  br label %30

19:                                               ; preds = %_ZNK2mu11ParserTokenIdNSt7__cxx1112basic_stringIcSt11char_traitsIcESaIcEEEE7GetCodeEv.exit
  br label %30

20:                                               ; preds = %_ZNK2mu11ParserTokenIdNSt7__cxx1112basic_stringIcSt11char_traitsIcESaIcEEEE7GetCodeEv.exit, %_ZNK2mu11ParserTokenIdNSt7__cxx1112basic_stringIcSt11char_traitsIcESaIcEEEE7GetCodeEv.exit
  %21 = tail call noundef i32 @_ZNK2mu11ParserTokenIdNSt7__cxx1112basic_stringIcSt11char_traitsIcESaIcEEEE6GetPriEv(ptr noundef nonnull align 8 dereferenceable(104) %1)
  br label %30

22:                                               ; preds = %_ZNK2mu11ParserTokenIdNSt7__cxx1112basic_stringIcSt11char_traitsIcESaIcEEEE7GetCodeEv.exit
  %23 = tail call ptr @__cxa_allocate_exception(i64 112) #23
  call void @_ZNSaIcEC1Ev(ptr noundef nonnull align 1 dereferenceable(1) %4) #23
  invoke void @_ZNSt7__cxx1112basic_stringIcSt11char_traitsIcESaIcEEC1EPKcRKS3_(ptr noundef nonnull align 8 dereferenceable(32) %3, ptr noundef nonnull @.str.38, ptr noundef nonnull align 1 dereferenceable(1) %4)
          to label %24 unwind label %.thread

24:                                               ; preds = %22
  invoke void @_ZN2mu11ParserErrorC1ENS_11EErrorCodesEiRKNSt7__cxx1112basic_stringIcSt11char_traitsIcESaIcEEE(ptr noundef nonnull align 8 dereferenceable(112) %23, i32 noundef 39, i32 noundef 5, ptr noundef nonnull align 8 dereferenceable(32) %3)
          to label %25 unwind label %27

25:                                               ; preds = %24
  invoke void @__cxa_throw(ptr nonnull %23, ptr nonnull @_ZTIN2mu11ParserErrorE, ptr nonnull @_ZN2mu11ParserErrorD1Ev) #32
          to label %32 unwind label %27

.thread:                                          ; preds = %22
  %26 = landingpad { ptr, i32 }
          cleanup
  call void @_ZNSaIcED1Ev(ptr noundef nonnull align 1 dereferenceable(1) %4) #23
  br label %29

27:                                               ; preds = %24, %25
  %.0 = phi i1 [ false, %25 ], [ true, %24 ]
  %28 = landingpad { ptr, i32 }
          cleanup
  call void @_ZNSt7__cxx1112basic_stringIcSt11char_traitsIcESaIcEED1Ev(ptr noundef nonnull align 8 dereferenceable(32) %3) #23
  call void @_ZNSaIcED1Ev(ptr noundef nonnull align 1 dereferenceable(1) %4) #23
  br i1 %.0, label %29, label %31

29:                                               ; preds = %.thread, %27
  %.pn12 = phi { ptr, i32 } [ %26, %.thread ], [ %28, %27 ]
  call void @__cxa_free_exception(ptr %23) #23
  br label %31

30:                                               ; preds = %_ZNK2mu11ParserTokenIdNSt7__cxx1112basic_stringIcSt11char_traitsIcESaIcEEEE7GetCodeEv.exit, %20, %19, %18, %17, %16, %15, %14, %13, %12, %11
  %.07 = phi i32 [ %21, %20 ], [ 7, %19 ], [ 6, %18 ], [ 5, %17 ], [ 4, %16 ], [ 1, %15 ], [ 2, %14 ], [ 0, %13 ], [ -1, %12 ], [ -4, %11 ], [ -5, %_ZNK2mu11ParserTokenIdNSt7__cxx1112basic_stringIcSt11char_traitsIcESaIcEEEE7GetCodeEv.exit ]
  ret i32 %.07

31:                                               ; preds = %27, %29
  %.pn11 = phi { ptr, i32 } [ %28, %27 ], [ %.pn12, %29 ]
  resume { ptr, i32 } %.pn11

32:                                               ; preds = %25
  unreachable
}